target datalayout = "e-m:e-p270:32:32-p271:32:32-p272:64:64-i64:64-i128:128-f80:128-n8:16:32:64-S128"
target triple = "x86_64-pc-linux-gnu"

%"class.pxrInternal_v0_24__pxrReserved__::TfCallContext" = type <{ ptr, ptr, i64, ptr, i8, [7 x i8] }>
%"struct.pxrInternal_v0_24__pxrReserved__::Sdf_ChangeManager::_Data" = type { %"class.std::vector", ptr, %"class.std::vector.13" }
%"class.std::vector" = type { %"struct.std::_Vector_base" }
%"struct.std::_Vector_base" = type { %"struct.std::_Vector_base<std::pair<pxrInternal_v0_24__pxrReserved__::TfWeakPtr<pxrInternal_v0_24__pxrReserved__::SdfLayer>, pxrInternal_v0_24__pxrReserved__::SdfChangeList>, std::allocator<std::pair<pxrInternal_v0_24__pxrReserved__::TfWeakPtr<pxrInternal_v0_24__pxrReserved__::SdfLayer>, pxrInternal_v0_24__pxrReserved__::SdfChangeList>>>::_Vector_impl" }
%"struct.std::_Vector_base<std::pair<pxrInternal_v0_24__pxrReserved__::TfWeakPtr<pxrInternal_v0_24__pxrReserved__::SdfLayer>, pxrInternal_v0_24__pxrReserved__::SdfChangeList>, std::allocator<std::pair<pxrInternal_v0_24__pxrReserved__::TfWeakPtr<pxrInternal_v0_24__pxrReserved__::SdfLayer>, pxrInternal_v0_24__pxrReserved__::SdfChangeList>>>::_Vector_impl" = type { %"struct.std::_Vector_base<std::pair<pxrInternal_v0_24__pxrReserved__::TfWeakPtr<pxrInternal_v0_24__pxrReserved__::SdfLayer>, pxrInternal_v0_24__pxrReserved__::SdfChangeList>, std::allocator<std::pair<pxrInternal_v0_24__pxrReserved__::TfWeakPtr<pxrInternal_v0_24__pxrReserved__::SdfLayer>, pxrInternal_v0_24__pxrReserved__::SdfChangeList>>>::_Vector_impl_data" }
%"struct.std::_Vector_base<std::pair<pxrInternal_v0_24__pxrReserved__::TfWeakPtr<pxrInternal_v0_24__pxrReserved__::SdfLayer>, pxrInternal_v0_24__pxrReserved__::SdfChangeList>, std::allocator<std::pair<pxrInternal_v0_24__pxrReserved__::TfWeakPtr<pxrInternal_v0_24__pxrReserved__::SdfLayer>, pxrInternal_v0_24__pxrReserved__::SdfChangeList>>>::_Vector_impl_data" = type { ptr, ptr, ptr }
%"class.std::vector.13" = type { %"struct.std::_Vector_base.14" }
%"struct.std::_Vector_base.14" = type { %"struct.std::_Vector_base<pxrInternal_v0_24__pxrReserved__::SdfSpec, std::allocator<pxrInternal_v0_24__pxrReserved__::SdfSpec>>::_Vector_impl" }
%"struct.std::_Vector_base<pxrInternal_v0_24__pxrReserved__::SdfSpec, std::allocator<pxrInternal_v0_24__pxrReserved__::SdfSpec>>::_Vector_impl" = type { %"struct.std::_Vector_base<pxrInternal_v0_24__pxrReserved__::SdfSpec, std::allocator<pxrInternal_v0_24__pxrReserved__::SdfSpec>>::_Vector_impl_data" }
%"struct.std::_Vector_base<pxrInternal_v0_24__pxrReserved__::SdfSpec, std::allocator<pxrInternal_v0_24__pxrReserved__::SdfSpec>>::_Vector_impl_data" = type { ptr, ptr, ptr }

@.str.7 = private unnamed_addr constant [123 x i8] c"generated/home/dtcxzyw/WorkSpace/Projects/compilers/llvm-opt-benchmark/bench/openusd/OpenUSD/pxr/usd/sdf/changeManager.cpp\00", align 1
@__func__._ZN32pxrInternal_v0_24__pxrReserved__17Sdf_ChangeManager17_CloseChangeBlockEPKNS_14SdfChangeBlockEPKv = private unnamed_addr constant [18 x i8] c"_CloseChangeBlock\00", align 1
@__PRETTY_FUNCTION__._ZN32pxrInternal_v0_24__pxrReserved__17Sdf_ChangeManager17_CloseChangeBlockEPKNS_14SdfChangeBlockEPKv = private unnamed_addr constant [114 x i8] c"void pxrInternal_v0_24__pxrReserved__::Sdf_ChangeManager::_CloseChangeBlock(const SdfChangeBlock *, const void *)\00", align 1
@.str.8 = private unnamed_addr constant [29 x i8] c"data.outermostBlock == block\00", align 1
@.str.9 = private unnamed_addr constant [35 x i8] c"Improperly nested SdfChangeBlocks!\00", align 1

; Function Attrs: mustprogress nounwind uwtable
define linkonce_odr void @_ZN32pxrInternal_v0_24__pxrReserved__13TfCallContextC2EPKcS2_mS2_(ptr noundef nonnull align 8 dereferenceable(33) %0, ptr noundef %1, ptr noundef %2, i64 noundef %3, ptr noundef %4) unnamed_addr #1 comdat align 2 {
  %6 = alloca ptr, align 8
  %7 = alloca ptr, align 8
  %8 = alloca ptr, align 8
  %9 = alloca i64, align 8
  %10 = alloca ptr, align 8
  store ptr %0, ptr %6, align 8
  store ptr %1, ptr %7, align 8
  store ptr %2, ptr %8, align 8
  store i64 %3, ptr %9, align 8
  store ptr %4, ptr %10, align 8
  %11 = load ptr, ptr %6, align 8
  %12 = getelementptr inbounds nuw %"class.pxrInternal_v0_24__pxrReserved__::TfCallContext", ptr %11, i32 0, i32 0
  %13 = load ptr, ptr %7, align 8
  store ptr %13, ptr %12, align 8
  %14 = getelementptr inbounds nuw %"class.pxrInternal_v0_24__pxrReserved__::TfCallContext", ptr %11, i32 0, i32 1
  %15 = load ptr, ptr %8, align 8
  store ptr %15, ptr %14, align 8
  %16 = getelementptr inbounds nuw %"class.pxrInternal_v0_24__pxrReserved__::TfCallContext", ptr %11, i32 0, i32 2
  %17 = load i64, ptr %9, align 8
  store i64 %17, ptr %16, align 8
  %18 = getelementptr inbounds nuw %"class.pxrInternal_v0_24__pxrReserved__::TfCallContext", ptr %11, i32 0, i32 3
  %19 = load ptr, ptr %10, align 8
  store ptr %19, ptr %18, align 8
  %20 = getelementptr inbounds nuw %"class.pxrInternal_v0_24__pxrReserved__::TfCallContext", ptr %11, i32 0, i32 4
  store i8 0, ptr %20, align 8
  ret void
}

; Function Attrs: mustprogress uwtable
define void @_ZN32pxrInternal_v0_24__pxrReserved__17Sdf_ChangeManager17_CloseChangeBlockEPKNS_14SdfChangeBlockEPKv(ptr noundef nonnull align 8 dereferenceable(104) %0, ptr noundef %1, ptr noundef %2) #0 align 2 {
  %4 = alloca ptr, align 8
  %5 = alloca ptr, align 8
  %6 = alloca ptr, align 8
  %7 = alloca ptr, align 8
  %8 = alloca %"class.pxrInternal_v0_24__pxrReserved__::TfCallContext", align 8
  store ptr %0, ptr %4, align 8
  store ptr %1, ptr %5, align 8
  store ptr %2, ptr %6, align 8
  %9 = load ptr, ptr %4, align 8
  %10 = load ptr, ptr %6, align 8
  store ptr %10, ptr %7, align 8
  %11 = load ptr, ptr %7, align 8
  %12 = getelementptr inbounds nuw %"struct.pxrInternal_v0_24__pxrReserved__::Sdf_ChangeManager::_Data", ptr %11, i32 0, i32 1
  %13 = load ptr, ptr %12, align 8
  %14 = load ptr, ptr %5, align 8
  %15 = icmp eq ptr %13, %14
  br i1 %15, label %16, label %17

16:                                               ; preds = %3
  br label %20

17:                                               ; preds = %3
  call void @_ZN32pxrInternal_v0_24__pxrReserved__13TfCallContextC2EPKcS2_mS2_(ptr noundef nonnull align 8 dereferenceable(33) %8, ptr noundef @.str.7, ptr noundef @__func__._ZN32pxrInternal_v0_24__pxrReserved__17Sdf_ChangeManager17_CloseChangeBlockEPKNS_14SdfChangeBlockEPKv, i64 noundef 92, ptr noundef @__PRETTY_FUNCTION__._ZN32pxrInternal_v0_24__pxrReserved__17Sdf_ChangeManager17_CloseChangeBlockEPKNS_14SdfChangeBlockEPKv)
  %18 = call noundef ptr (ptr, ...) @_ZN32pxrInternal_v0_24__pxrReserved__21Tf_VerifyStringFormatEPKcz(ptr noundef @.str.9)
  %19 = call noundef zeroext i1 @_ZN32pxrInternal_v0_24__pxrReserved__21Tf_FailedVerifyHelperERKNS_13TfCallContextEPKcS4_(ptr noundef nonnull align 8 dereferenceable(33) %8, ptr noundef @.str.8, ptr noundef %18)
  br label %20

20:                                               ; preds = %17, %16
  %21 = load ptr, ptr %7, align 8
  call void @_ZN32pxrInternal_v0_24__pxrReserved__17Sdf_ChangeManager21_ProcessRemoveIfInertEPNS0_5_DataE(ptr noundef nonnull align 8 dereferenceable(104) %9, ptr noundef %21)
  %22 = load ptr, ptr %7, align 8
  %23 = getelementptr inbounds nuw %"struct.pxrInternal_v0_24__pxrReserved__::Sdf_ChangeManager::_Data", ptr %22, i32 0, i32 1
  store ptr null, ptr %23, align 8
  %24 = load ptr, ptr %7, align 8
  call void @_ZN32pxrInternal_v0_24__pxrReserved__17Sdf_ChangeManager12_SendNoticesEPNS0_5_DataE(ptr noundef nonnull align 8 dereferenceable(104) %9, ptr noundef %24)
  ret void
}