; Function Attrs: mustprogress uwtable
define void @_ZN32pxrInternal_v0_24__pxrReserved__17Sdf_ChangeManager17_CloseChangeBlockEPKNS_14SdfChangeBlockEPKv(ptr noundef nonnull readnone align 8 captures(none) dereferenceable(104) %0, ptr noundef readnone %1, ptr noundef captures(none) %2) local_unnamed_addr #0 align 2 {
  %4 = alloca %"class.pxrInternal_v0_24__pxrReserved__::TfCallContext", align 8
  %5 = getelementptr inbounds nuw i8, ptr %2, i64 24
  %6 = load ptr, ptr %5, align 8
  %7 = icmp eq ptr %6, %1
  br i1 %7, label %15, label %8

8:                                                ; preds = %3
  store ptr @.str.7, ptr %4, align 8
  %9 = getelementptr inbounds nuw i8, ptr %4, i64 8
  store ptr @__func__._ZN32pxrInternal_v0_24__pxrReserved__17Sdf_ChangeManager17_CloseChangeBlockEPKNS_14SdfChangeBlockEPKv, ptr %9, align 8
  %10 = getelementptr inbounds nuw i8, ptr %4, i64 16
  store i64 92, ptr %10, align 8
  %11 = getelementptr inbounds nuw i8, ptr %4, i64 24
  store ptr @__PRETTY_FUNCTION__._ZN32pxrInternal_v0_24__pxrReserved__17Sdf_ChangeManager17_CloseChangeBlockEPKNS_14SdfChangeBlockEPKv, ptr %11, align 8
  %12 = getelementptr inbounds nuw i8, ptr %4, i64 32
  store i8 0, ptr %12, align 8
  %13 = tail call noundef ptr (ptr, ...) @_ZN32pxrInternal_v0_24__pxrReserved__21Tf_VerifyStringFormatEPKcz(ptr noundef nonnull @.str.9)
  %14 = call noundef zeroext i1 @_ZN32pxrInternal_v0_24__pxrReserved__21Tf_FailedVerifyHelperERKNS_13TfCallContextEPKcS4_(ptr noundef nonnull align 8 dereferenceable(33) %4, ptr noundef nonnull @.str.8, ptr noundef %13)
  br label %15

15:                                               ; preds = %3, %8
  call void @_ZN32pxrInternal_v0_24__pxrReserved__17Sdf_ChangeManager21_ProcessRemoveIfInertEPNS0_5_DataE(ptr nonnull align 8 poison, ptr noundef nonnull %2)
  store ptr null, ptr %5, align 8
  call void @_ZN32pxrInternal_v0_24__pxrReserved__17Sdf_ChangeManager12_SendNoticesEPNS0_5_DataE(ptr nonnull align 8 poison, ptr noundef nonnull %2)
  ret void
}